target datalayout = "e-m:e-p270:32:32-p271:32:32-p272:64:64-i64:64-i128:128-f80:128-n8:16:32:64-S128"
target triple = "x86_64-pc-linux-gnu"

%struct.GENERAL_NAME_st = type { i32, %union.anon }
%union.anon = type { ptr }
%struct.asn1_string_st = type { i32, i32, ptr, i64 }

@.str.2 = private unnamed_addr constant [34 x i8] c"../openssl/crypto/x509/v3_ncons.c\00", align 1

; Function Attrs: nounwind uwtable
define internal i32 @cn2dnsid(ptr noundef %0, ptr noundef %1, ptr noundef %2) #0 {
  %4 = alloca i32, align 4
  %5 = alloca ptr, align 8
  %6 = alloca ptr, align 8
  %7 = alloca ptr, align 8
  %8 = alloca i32, align 4
  %9 = alloca ptr, align 8
  %10 = alloca i32, align 4
  %11 = alloca i32, align 4
  %12 = alloca i32, align 4
  %13 = alloca i8, align 1
  store ptr %0, ptr %5, align 8, !tbaa !82
  store ptr %1, ptr %6, align 8, !tbaa !87
  store ptr %2, ptr %7, align 8, !tbaa !89
  call void @llvm.lifetime.start.p0(i64 4, ptr %8) #6
  call void @llvm.lifetime.start.p0(i64 8, ptr %9) #6
  call void @llvm.lifetime.start.p0(i64 4, ptr %10) #6
  call void @llvm.lifetime.start.p0(i64 4, ptr %11) #6
  store i32 0, ptr %11, align 4, !tbaa !18
  %14 = load ptr, ptr %6, align 8, !tbaa !87
  store ptr null, ptr %14, align 8, !tbaa !85
  %15 = load ptr, ptr %7, align 8, !tbaa !89
  store i64 0, ptr %15, align 8, !tbaa !83
  %16 = load ptr, ptr %5, align 8, !tbaa !82
  %17 = call i32 @ASN1_STRING_to_UTF8(ptr noundef %9, ptr noundef %16)
  store i32 %17, ptr %8, align 4, !tbaa !18
  %18 = icmp slt i32 %17, 0
  br i1 %18, label %19, label %20

19:                                               ; preds = %3
  store i32 17, ptr %4, align 4
  store i32 1, ptr %12, align 4
  br label %148

20:                                               ; preds = %3
  br label %21

21:                                               ; preds = %35, %20
  %22 = load i32, ptr %8, align 4, !tbaa !18
  %23 = icmp sgt i32 %22, 0
  br i1 %23, label %24, label %33

24:                                               ; preds = %21
  %25 = load ptr, ptr %9, align 8, !tbaa !85
  %26 = load i32, ptr %8, align 4, !tbaa !18
  %27 = sub nsw i32 %26, 1
  %28 = sext i32 %27 to i64
  %29 = getelementptr inbounds i8, ptr %25, i64 %28
  %30 = load i8, ptr %29, align 1, !tbaa !24
  %31 = zext i8 %30 to i32
  %32 = icmp eq i32 %31, 0
  br label %33

33:                                               ; preds = %24, %21
  %34 = phi i1 [ false, %21 ], [ %32, %24 ]
  br i1 %34, label %35, label %38

35:                                               ; preds = %33
  %36 = load i32, ptr %8, align 4, !tbaa !18
  %37 = add nsw i32 %36, -1
  store i32 %37, ptr %8, align 4, !tbaa !18
  br label %21, !llvm.loop !91

38:                                               ; preds = %33
  %39 = load ptr, ptr %9, align 8, !tbaa !85
  %40 = load i32, ptr %8, align 4, !tbaa !18
  %41 = sext i32 %40 to i64
  %42 = call ptr @memchr(ptr noundef %39, i32 noundef 0, i64 noundef %41) #7
  %43 = icmp ne ptr %42, null
  br i1 %43, label %44, label %46

44:                                               ; preds = %38
  %45 = load ptr, ptr %9, align 8, !tbaa !85
  call void @CRYPTO_free(ptr noundef %45, ptr noundef @.str.2, i32 noundef 383)
  store i32 53, ptr %4, align 4
  store i32 1, ptr %12, align 4
  br label %148

46:                                               ; preds = %38
  store i32 0, ptr %10, align 4, !tbaa !18
  br label %47

47:                                               ; preds = %134, %46
  %48 = load i32, ptr %10, align 4, !tbaa !18
  %49 = load i32, ptr %8, align 4, !tbaa !18
  %50 = icmp slt i32 %48, %49
  br i1 %50, label %51, label %137

51:                                               ; preds = %47
  call void @llvm.lifetime.start.p0(i64 1, ptr %13) #6
  %52 = load ptr, ptr %9, align 8, !tbaa !85
  %53 = load i32, ptr %10, align 4, !tbaa !18
  %54 = sext i32 %53 to i64
  %55 = getelementptr inbounds i8, ptr %52, i64 %54
  %56 = load i8, ptr %55, align 1, !tbaa !24
  store i8 %56, ptr %13, align 1, !tbaa !24
  %57 = load i8, ptr %13, align 1, !tbaa !24
  %58 = zext i8 %57 to i32
  %59 = icmp sge i32 %58, 97
  br i1 %59, label %60, label %64

60:                                               ; preds = %51
  %61 = load i8, ptr %13, align 1, !tbaa !24
  %62 = zext i8 %61 to i32
  %63 = icmp sle i32 %62, 122
  br i1 %63, label %84, label %64

64:                                               ; preds = %60, %51
  %65 = load i8, ptr %13, align 1, !tbaa !24
  %66 = zext i8 %65 to i32
  %67 = icmp sge i32 %66, 65
  br i1 %67, label %68, label %72

68:                                               ; preds = %64
  %69 = load i8, ptr %13, align 1, !tbaa !24
  %70 = zext i8 %69 to i32
  %71 = icmp sle i32 %70, 90
  br i1 %71, label %84, label %72

72:                                               ; preds = %68, %64
  %73 = load i8, ptr %13, align 1, !tbaa !24
  %74 = zext i8 %73 to i32
  %75 = icmp sge i32 %74, 48
  br i1 %75, label %76, label %80

76:                                               ; preds = %72
  %77 = load i8, ptr %13, align 1, !tbaa !24
  %78 = zext i8 %77 to i32
  %79 = icmp sle i32 %78, 57
  br i1 %79, label %84, label %80

80:                                               ; preds = %76, %72
  %81 = load i8, ptr %13, align 1, !tbaa !24
  %82 = zext i8 %81 to i32
  %83 = icmp eq i32 %82, 95
  br i1 %83, label %84, label %85

84:                                               ; preds = %80, %76, %68, %60
  store i32 6, ptr %12, align 4
  br label %132

85:                                               ; preds = %80
  %86 = load i32, ptr %10, align 4, !tbaa !18
  %87 = icmp sgt i32 %86, 0
  br i1 %87, label %88, label %131

88:                                               ; preds = %85
  %89 = load i32, ptr %10, align 4, !tbaa !18
  %90 = load i32, ptr %8, align 4, !tbaa !18
  %91 = sub nsw i32 %90, 1
  %92 = icmp slt i32 %89, %91
  br i1 %92, label %93, label %131

93:                                               ; preds = %88
  %94 = load i8, ptr %13, align 1, !tbaa !24
  %95 = zext i8 %94 to i32
  %96 = icmp eq i32 %95, 45
  br i1 %96, label %97, label %98

97:                                               ; preds = %93
  store i32 6, ptr %12, align 4
  br label %132

98:                                               ; preds = %93
  %99 = load i8, ptr %13, align 1, !tbaa !24
  %100 = zext i8 %99 to i32
  %101 = icmp eq i32 %100, 46
  br i1 %101, label %102, label %130

102:                                              ; preds = %98
  %103 = load ptr, ptr %9, align 8, !tbaa !85
  %104 = load i32, ptr %10, align 4, !tbaa !18
  %105 = add nsw i32 %104, 1
  %106 = sext i32 %105 to i64
  %107 = getelementptr inbounds i8, ptr %103, i64 %106
  %108 = load i8, ptr %107, align 1, !tbaa !24
  %109 = zext i8 %108 to i32
  %110 = icmp ne i32 %109, 46
  br i1 %110, label %111, label %130

111:                                              ; preds = %102
  %112 = load ptr, ptr %9, align 8, !tbaa !85
  %113 = load i32, ptr %10, align 4, !tbaa !18
  %114 = sub nsw i32 %113, 1
  %115 = sext i32 %114 to i64
  %116 = getelementptr inbounds i8, ptr %112, i64 %115
  %117 = load i8, ptr %116, align 1, !tbaa !24
  %118 = zext i8 %117 to i32
  %119 = icmp ne i32 %118, 45
  br i1 %119, label %120, label %130

120:                                              ; preds = %111
  %121 = load ptr, ptr %9, align 8, !tbaa !85
  %122 = load i32, ptr %10, align 4, !tbaa !18
  %123 = add nsw i32 %122, 1
  %124 = sext i32 %123 to i64
  %125 = getelementptr inbounds i8, ptr %121, i64 %124
  %126 = load i8, ptr %125, align 1, !tbaa !24
  %127 = zext i8 %126 to i32
  %128 = icmp ne i32 %127, 45
  br i1 %128, label %129, label %130

129:                                              ; preds = %120
  store i32 1, ptr %11, align 4, !tbaa !18
  store i32 6, ptr %12, align 4
  br label %132

130:                                              ; preds = %120, %111, %102, %98
  br label %131

131:                                              ; preds = %130, %88, %85
  store i32 0, ptr %11, align 4, !tbaa !18
  store i32 4, ptr %12, align 4
  br label %132

132:                                              ; preds = %131, %129, %97, %84
  call void @llvm.lifetime.end.p0(i64 1, ptr %13) #6
  %133 = load i32, ptr %12, align 4
  switch i32 %133, label %150 [
    i32 6, label %134
    i32 4, label %137
  ]

134:                                              ; preds = %132
  %135 = load i32, ptr %10, align 4, !tbaa !18
  %136 = add nsw i32 %135, 1
  store i32 %136, ptr %10, align 4, !tbaa !18
  br label %47, !llvm.loop !92

137:                                              ; preds = %132, %47
  %138 = load i32, ptr %11, align 4, !tbaa !18
  %139 = icmp ne i32 %138, 0
  br i1 %139, label %140, label %146

140:                                              ; preds = %137
  %141 = load ptr, ptr %9, align 8, !tbaa !85
  %142 = load ptr, ptr %6, align 8, !tbaa !87
  store ptr %141, ptr %142, align 8, !tbaa !85
  %143 = load i32, ptr %8, align 4, !tbaa !18
  %144 = sext i32 %143 to i64
  %145 = load ptr, ptr %7, align 8, !tbaa !89
  store i64 %144, ptr %145, align 8, !tbaa !83
  store i32 0, ptr %4, align 4
  store i32 1, ptr %12, align 4
  br label %148

146:                                              ; preds = %137
  %147 = load ptr, ptr %9, align 8, !tbaa !85
  call void @CRYPTO_free(ptr noundef %147, ptr noundef @.str.2, i32 noundef 431)
  store i32 0, ptr %4, align 4
  store i32 1, ptr %12, align 4
  br label %148

148:                                              ; preds = %146, %140, %44, %19
  call void @llvm.lifetime.end.p0(i64 4, ptr %11) #6
  call void @llvm.lifetime.end.p0(i64 4, ptr %10) #6
  call void @llvm.lifetime.end.p0(i64 8, ptr %9) #6
  call void @llvm.lifetime.end.p0(i64 4, ptr %8) #6
  %149 = load i32, ptr %4, align 4
  ret i32 %149

150:                                              ; preds = %132
  unreachable
}

; Function Attrs: nounwind uwtable
define i32 @NAME_CONSTRAINTS_check_CN(ptr noundef %0, ptr noundef %1) #0 {
  %3 = alloca i32, align 4
  %4 = alloca ptr, align 8
  %5 = alloca ptr, align 8
  %6 = alloca i32, align 4
  %7 = alloca i32, align 4
  %8 = alloca ptr, align 8
  %9 = alloca %struct.asn1_string_st, align 8
  %10 = alloca %struct.GENERAL_NAME_st, align 8
  %11 = alloca ptr, align 8
  %12 = alloca ptr, align 8
  %13 = alloca ptr, align 8
  %14 = alloca i64, align 8
  %15 = alloca i32, align 4
  store ptr %0, ptr %4, align 8, !tbaa !39
  store ptr %1, ptr %5, align 8, !tbaa !14
  call void @llvm.lifetime.start.p0(i64 4, ptr %6) #6
  call void @llvm.lifetime.start.p0(i64 4, ptr %7) #6
  call void @llvm.lifetime.start.p0(i64 8, ptr %8) #6
  %16 = load ptr, ptr %4, align 8, !tbaa !39
  %17 = call ptr @X509_get_subject_name(ptr noundef %16)
  store ptr %17, ptr %8, align 8, !tbaa !41
  call void @llvm.lifetime.start.p0(i64 24, ptr %9) #6
  call void @llvm.lifetime.start.p0(i64 16, ptr %10) #6
  %18 = getelementptr inbounds nuw %struct.asn1_string_st, ptr %9, i32 0, i32 3
  store i64 0, ptr %18, align 8, !tbaa !81
  %19 = getelementptr inbounds nuw %struct.asn1_string_st, ptr %9, i32 0, i32 1
  store i32 22, ptr %19, align 4, !tbaa !71
  %20 = getelementptr inbounds nuw %struct.GENERAL_NAME_st, ptr %10, i32 0, i32 0
  store i32 2, ptr %20, align 8, !tbaa !67
  %21 = getelementptr inbounds nuw %struct.GENERAL_NAME_st, ptr %10, i32 0, i32 1
  store ptr %9, ptr %21, align 8, !tbaa !24
  store i32 -1, ptr %7, align 4, !tbaa !18
  br label %22

22:                                               ; preds = %60, %58, %2
  call void @llvm.lifetime.start.p0(i64 8, ptr %11) #6
  call void @llvm.lifetime.start.p0(i64 8, ptr %12) #6
  call void @llvm.lifetime.start.p0(i64 8, ptr %13) #6
  call void @llvm.lifetime.start.p0(i64 8, ptr %14) #6
  %23 = load ptr, ptr %8, align 8, !tbaa !41
  %24 = load i32, ptr %7, align 4, !tbaa !18
  %25 = call i32 @X509_NAME_get_index_by_NID(ptr noundef %23, i32 noundef 13, i32 noundef %24)
  store i32 %25, ptr %7, align 4, !tbaa !18
  %26 = load i32, ptr %7, align 4, !tbaa !18
  %27 = icmp eq i32 %26, -1
  br i1 %27, label %28, label %29

28:                                               ; preds = %22
  store i32 2, ptr %15, align 4
  br label %58

29:                                               ; preds = %22
  %30 = load ptr, ptr %8, align 8, !tbaa !41
  %31 = load i32, ptr %7, align 4, !tbaa !18
  %32 = call ptr @X509_NAME_get_entry(ptr noundef %30, i32 noundef %31)
  store ptr %32, ptr %11, align 8, !tbaa !69
  %33 = load ptr, ptr %11, align 8, !tbaa !69
  %34 = call ptr @X509_NAME_ENTRY_get_data(ptr noundef %33)
  store ptr %34, ptr %12, align 8, !tbaa !82
  %35 = load ptr, ptr %12, align 8, !tbaa !82
  %36 = call i32 @cn2dnsid(ptr noundef %35, ptr noundef %13, ptr noundef %14)
  store i32 %36, ptr %6, align 4, !tbaa !18
  %37 = icmp ne i32 %36, 0
  br i1 %37, label %38, label %40

38:                                               ; preds = %29
  %39 = load i32, ptr %6, align 4, !tbaa !18
  store i32 %39, ptr %3, align 4
  store i32 1, ptr %15, align 4
  br label %58

40:                                               ; preds = %29
  %41 = load i64, ptr %14, align 8, !tbaa !83
  %42 = icmp eq i64 %41, 0
  br i1 %42, label %43, label %44

43:                                               ; preds = %40
  store i32 3, ptr %15, align 4
  br label %58

44:                                               ; preds = %40
  %45 = load i64, ptr %14, align 8, !tbaa !83
  %46 = trunc i64 %45 to i32
  %47 = getelementptr inbounds nuw %struct.asn1_string_st, ptr %9, i32 0, i32 0
  store i32 %46, ptr %47, align 8, !tbaa !84
  %48 = load ptr, ptr %13, align 8, !tbaa !85
  %49 = getelementptr inbounds nuw %struct.asn1_string_st, ptr %9, i32 0, i32 2
  store ptr %48, ptr %49, align 8, !tbaa !86
  %50 = load ptr, ptr %5, align 8, !tbaa !14
  %51 = call i32 @nc_match(ptr noundef %10, ptr noundef %50)
  store i32 %51, ptr %6, align 4, !tbaa !18
  %52 = load ptr, ptr %13, align 8, !tbaa !85
  call void @CRYPTO_free(ptr noundef %52, ptr noundef @.str.2, i32 noundef 473)
  %53 = load i32, ptr %6, align 4, !tbaa !18
  %54 = icmp ne i32 %53, 0
  br i1 %54, label %55, label %57

55:                                               ; preds = %44
  %56 = load i32, ptr %6, align 4, !tbaa !18
  store i32 %56, ptr %3, align 4
  store i32 1, ptr %15, align 4
  br label %58

57:                                               ; preds = %44
  store i32 0, ptr %15, align 4
  br label %58

58:                                               ; preds = %57, %55, %43, %38, %28
  call void @llvm.lifetime.end.p0(i64 8, ptr %14) #6
  call void @llvm.lifetime.end.p0(i64 8, ptr %13) #6
  call void @llvm.lifetime.end.p0(i64 8, ptr %12) #6
  call void @llvm.lifetime.end.p0(i64 8, ptr %11) #6
  %59 = load i32, ptr %15, align 4
  switch i32 %59, label %62 [
    i32 0, label %60
    i32 2, label %61
    i32 3, label %22
  ]

60:                                               ; preds = %58
  br label %22

61:                                               ; preds = %58
  store i32 0, ptr %3, align 4
  store i32 1, ptr %15, align 4
  br label %62

62:                                               ; preds = %61, %58
  call void @llvm.lifetime.end.p0(i64 16, ptr %10) #6
  call void @llvm.lifetime.end.p0(i64 24, ptr %9) #6
  call void @llvm.lifetime.end.p0(i64 8, ptr %8) #6
  call void @llvm.lifetime.end.p0(i64 4, ptr %7) #6
  call void @llvm.lifetime.end.p0(i64 4, ptr %6) #6
  %63 = load i32, ptr %3, align 4
  ret i32 %63
}