; Function Attrs: nounwind uwtable
define range(i32 0, 54) i32 @NAME_CONSTRAINTS_check_CN(ptr noundef %0, ptr noundef readonly captures(none) %1) local_unnamed_addr #1 {
  %3 = alloca ptr, align 8
  %4 = alloca %struct.asn1_string_st, align 8
  %5 = alloca %struct.GENERAL_NAME_st, align 8
  %6 = tail call ptr @X509_get_subject_name(ptr noundef %0) #9
  call void @llvm.lifetime.start.p0(i64 24, ptr nonnull %4) #9
  call void @llvm.lifetime.start.p0(i64 16, ptr nonnull %5) #9
  %7 = getelementptr inbounds nuw i8, ptr %4, i64 16
  store i64 0, ptr %7, align 8, !tbaa !59
  %8 = getelementptr inbounds nuw i8, ptr %4, i64 4
  store i32 22, ptr %8, align 4, !tbaa !51
  store i32 2, ptr %5, align 8, !tbaa !49
  %9 = getelementptr inbounds nuw i8, ptr %5, i64 8
  store ptr %4, ptr %9, align 8, !tbaa !11
  %10 = call i32 @X509_NAME_get_index_by_NID(ptr noundef %6, i32 noundef 13, i32 noundef -1) #9
  %11 = icmp eq i32 %10, -1
  br i1 %11, label %.thread34, label %.lr.ph

.lr.ph:                                           ; preds = %2
  %12 = getelementptr inbounds nuw i8, ptr %4, i64 8
  br label %13

13:                                               ; preds = %.lr.ph, %select.unfold
  %14 = phi i32 [ %10, %.lr.ph ], [ %52, %select.unfold ]
  %15 = call ptr @X509_NAME_get_entry(ptr noundef %6, i32 noundef %14) #9
  %16 = call ptr @X509_NAME_ENTRY_get_data(ptr noundef %15) #9
  call void @llvm.lifetime.start.p0(i64 8, ptr nonnull %3) #9
  %17 = call i32 @ASN1_STRING_to_UTF8(ptr noundef nonnull %3, ptr noundef %16) #9
  %18 = icmp slt i32 %17, 0
  br i1 %18, label %cn2dnsid.exit, label %.preheader67.i

.preheader67.i:                                   ; preds = %13
  %.not6669.i = icmp eq i32 %17, 0
  %.pre.i = load ptr, ptr %3, align 8, !tbaa !60
  br i1 %.not6669.i, label %.critedge.i, label %.lr.ph.i

.lr.ph.i:                                         ; preds = %.preheader67.i
  %invariant.gep.i = getelementptr i8, ptr %.pre.i, i64 -1
  br label %19

19:                                               ; preds = %23, %.lr.ph.i
  %.04570.i = phi i32 [ %17, %.lr.ph.i ], [ %24, %23 ]
  %20 = zext nneg i32 %.04570.i to i64
  %gep.i = getelementptr i8, ptr %invariant.gep.i, i64 %20
  %21 = load i8, ptr %gep.i, align 1, !tbaa !11
  %22 = icmp eq i8 %21, 0
  br i1 %22, label %23, label %.critedge.i

23:                                               ; preds = %19
  %24 = add nsw i32 %.04570.i, -1
  %.not66.i = icmp eq i32 %24, 0
  br i1 %.not66.i, label %.critedge.i, label %19, !llvm.loop !61

.critedge.i:                                      ; preds = %23, %19, %.preheader67.i
  %.045.lcssa.i = phi i32 [ 0, %.preheader67.i ], [ %.04570.i, %19 ], [ 0, %23 ]
  %25 = zext i32 %.045.lcssa.i to i64
  %26 = call ptr @memchr(ptr noundef %.pre.i, i32 noundef 0, i64 noundef %25) #10
  %.not.i = icmp eq ptr %26, null
  br i1 %.not.i, label %.preheader.i, label %31

.preheader.i:                                     ; preds = %.critedge.i
  %27 = icmp sgt i32 %.045.lcssa.i, 0
  br i1 %27, label %.lr.ph75.i, label %.loopexit

.lr.ph75.i:                                       ; preds = %.preheader.i
  %28 = add nsw i32 %.045.lcssa.i, -1
  %29 = zext nneg i32 %28 to i64
  br label %.outer.i

.outer.i:                                         ; preds = %.thread.i, %.lr.ph75.i
  %indvars.iv.ph.i = phi i64 [ %indvars.iv.next80.i, %.thread.i ], [ 0, %.lr.ph75.i ]
  %30 = phi i1 [ false, %.thread.i ], [ true, %.lr.ph75.i ]
  br label %32

31:                                               ; preds = %.critedge.i
  call void @CRYPTO_free(ptr noundef %.pre.i, ptr noundef nonnull @.str.2, i32 noundef 383) #9
  br label %cn2dnsid.exit

32:                                               ; preds = %50, %.outer.i
  %indvars.iv.i = phi i64 [ %indvars.iv.next.i, %50 ], [ %indvars.iv.ph.i, %.outer.i ]
  %33 = getelementptr inbounds nuw i8, ptr %.pre.i, i64 %indvars.iv.i
  %34 = load i8, ptr %33, align 1, !tbaa !11
  %35 = and i8 %34, -33
  %36 = add i8 %35, -65
  %or.cond54.i = icmp ult i8 %36, 26
  br i1 %or.cond54.i, label %50, label %37

37:                                               ; preds = %32
  %38 = add i8 %34, -48
  %or.cond8.i = icmp ult i8 %38, 10
  %39 = icmp eq i8 %34, 95
  %or.cond11.i = or i1 %39, %or.cond8.i
  br i1 %or.cond11.i, label %50, label %40

40:                                               ; preds = %37
  %.not49.i = icmp ne i64 %indvars.iv.i, 0
  %41 = icmp slt i64 %indvars.iv.i, %29
  %or.cond56.i = select i1 %.not49.i, i1 %41, i1 false
  br i1 %or.cond56.i, label %42, label %.loopexit

42:                                               ; preds = %40
  switch i8 %34, label %.loopexit [
    i8 45, label %50
    i8 46, label %43
  ]

43:                                               ; preds = %42
  %44 = getelementptr inbounds nuw i8, ptr %.pre.i, i64 %indvars.iv.i
  %45 = getelementptr inbounds nuw i8, ptr %44, i64 1
  %46 = load i8, ptr %45, align 1, !tbaa !11
  %.not50.i = icmp eq i8 %46, 46
  br i1 %.not50.i, label %.loopexit, label %47

47:                                               ; preds = %43
  %48 = getelementptr i8, ptr %44, i64 -1
  %49 = load i8, ptr %48, align 1, !tbaa !11
  %.not51.i = icmp eq i8 %49, 45
  %.not52.i = icmp eq i8 %46, 45
  %or.cond57.i = or i1 %.not52.i, %.not51.i
  br i1 %or.cond57.i, label %.loopexit, label %.thread.i

50:                                               ; preds = %42, %37, %32
  %indvars.iv.next.i = add nuw nsw i64 %indvars.iv.i, 1
  %exitcond.not.i = icmp eq i64 %indvars.iv.next.i, %25
  br i1 %exitcond.not.i, label %._crit_edge.i, label %32, !llvm.loop !62

.thread.i:                                        ; preds = %47
  %indvars.iv.next80.i = add nuw nsw i64 %indvars.iv.i, 1
  %exitcond.not81.i = icmp eq i64 %indvars.iv.next80.i, %25
  br i1 %exitcond.not81.i, label %.loopexit41, label %.outer.i, !llvm.loop !62

._crit_edge.i:                                    ; preds = %50
  br i1 %30, label %.loopexit, label %.loopexit41

cn2dnsid.exit:                                    ; preds = %13, %31
  %.0.i = phi i32 [ 53, %31 ], [ 17, %13 ]
  call void @llvm.lifetime.end.p0(i64 8, ptr nonnull %3) #9
  br label %.thread34

.loopexit:                                        ; preds = %43, %47, %40, %42, %.preheader.i, %._crit_edge.i
  call void @CRYPTO_free(ptr noundef %.pre.i, ptr noundef nonnull @.str.2, i32 noundef 431) #9
  call void @llvm.lifetime.end.p0(i64 8, ptr nonnull %3) #9
  br label %select.unfold

.loopexit41:                                      ; preds = %.thread.i, %._crit_edge.i
  call void @llvm.lifetime.end.p0(i64 8, ptr nonnull %3) #9
  store i32 %.045.lcssa.i, ptr %4, align 8, !tbaa !63
  store ptr %.pre.i, ptr %12, align 8, !tbaa !64
  %51 = call fastcc i32 @nc_match(ptr noundef nonnull %5, ptr noundef %1)
  call void @CRYPTO_free(ptr noundef %.pre.i, ptr noundef nonnull @.str.2, i32 noundef 473) #9
  %.not19 = icmp eq i32 %51, 0
  br i1 %.not19, label %select.unfold, label %.thread34

select.unfold:                                    ; preds = %.loopexit41, %.loopexit
  %52 = call i32 @X509_NAME_get_index_by_NID(ptr noundef %6, i32 noundef 13, i32 noundef %14) #9
  %53 = icmp eq i32 %52, -1
  br i1 %53, label %.thread34, label %13

.thread34:                                        ; preds = %select.unfold, %.loopexit41, %2, %cn2dnsid.exit
  %.2 = phi i32 [ %.0.i, %cn2dnsid.exit ], [ 0, %2 ], [ 0, %select.unfold ], [ %51, %.loopexit41 ]
  call void @llvm.lifetime.end.p0(i64 16, ptr nonnull %5) #9
  call void @llvm.lifetime.end.p0(i64 24, ptr nonnull %4) #9
  ret i32 %.2
}